Certificate:
    Data:
        Version: 1 (0x0)
        Serial Number: 1048578 (0x100002)
    Signature Algorithm: md5WithRSAEncryption
        Issuer: C=CA, ST=ON, L=Toronto, O=ECE, OU=568, CN=Bob's Server/emailAddress=penis_check
        Validity
            Not Before: Oct 22 20:35:44 2019 GMT
            Not After : Oct 21 20:35:44 2020 GMT
        Subject: C=CA, ST=ON, O=ECE, OU=568, CN=Alice's Client
        Subject Public Key Info:
            Public Key Algorithm: rsaEncryption
                Public-Key: (2048 bit)
                Modulus:
                    00:a9:02:24:2a:13:d7:0a:7d:30:c0:ec:f3:f1:ae:
                    e7:7b:a6:f0:20:db:ca:57:66:d0:31:bb:e1:a7:12:
                    ae:df:4d:3e:6d:34:8b:39:39:08:fc:15:c7:8a:93:
                    95:f7:3b:4e:25:f2:1c:50:40:12:47:37:d9:9a:d5:
                    e1:0a:01:a2:cd:66:63:78:42:fc:8e:84:d7:cd:98:
                    64:4f:89:af:d5:61:b6:49:ca:a7:ad:6c:0e:7a:e4:
                    0d:05:be:56:36:ae:84:3f:07:22:88:3a:66:55:51:
                    c9:18:63:16:dc:8a:52:a9:8e:4c:20:15:09:3a:6b:
                    37:d0:35:fc:30:1f:25:c8:6f:62:94:42:09:3b:f6:
                    ad:a2:22:cc:99:b9:9c:16:e9:59:2b:48:ba:23:0b:
                    75:22:0c:21:23:6c:62:3e:ba:94:41:1d:1e:62:a4:
                    b5:11:58:19:d8:cc:e9:60:62:3d:5f:cb:90:f5:8d:
                    1e:be:07:ec:fb:7f:dd:14:bb:f4:d5:6b:f5:83:f5:
                    c9:47:f0:14:f6:1e:d5:cf:fa:f3:a6:5d:61:5f:ab:
                    c4:66:c0:d4:51:b0:c4:9d:9f:3e:30:a5:b2:e1:58:
                    19:6a:3f:f5:54:8f:00:4f:63:b5:27:57:79:fd:66:
                    16:05:b9:c0:0d:12:46:7a:4e:04:e7:a0:01:61:b1:
                    0d:27
                Exponent: 65537 (0x10001)
    Signature Algorithm: md5WithRSAEncryption
         71:ad:67:5a:f3:c7:75:d1:a0:df:7a:98:8a:ca:2e:5c:be:2b:
         9a:94:4d:10:94:23:69:77:b1:eb:bc:ec:9e:24:6a:19:6a:a5:
         75:a1:21:62:1b:6f:ad:c2:c3:9b:4c:e5:a0:86:d1:0a:dc:aa:
         fd:40:16:1a:4a:44:39:d6:2c:ec:c0:6b:01:ae:43:1a:c2:48:
         17:04:22:2f:55:07:af:e8:ee:f3:aa:c5:20:3d:5c:24:fc:88:
         88:41:cf:3c:54:84:93:0b:8f:77:70:4a:ca:5e:b8:2e:ab:01:
         80:71:4f:3d:3f:ad:64:bb:28:50:87:2e:32:3b:b7:66:b6:58:
         7c:7d:4a:0a:0a:51:25:47:53:ae:c4:df:52:a7:23:f0:47:ef:
         8a:00:b2:1b:d9:70:df:22:e1:ea:05:29:0c:2b:a5:bd:ee:c5:
         58:ae:98:20:82:fa:c6:aa:5d:42:af:5e:9b:04:a1:4f:cf:52:
         6b:25:a1:b6:9a:20:2a:7c:10:eb:47:1d:cb:73:65:4b:5c:d4:
         7b:ca:89:ac:3e:50:94:ab:ea:91:34:5f:10:a5:bd:a5:d9:fb:
         75:4c:dc:5d:98:f2:7c:db:e0:95:25:0c:db:ae:9a:94:c8:34:
         45:71:27:0b:47:91:9c:51:52:38:06:8d:09:2d:50:1e:4e:5d:
         08:aa:97:fc
-----BEGIN CERTIFICATE-----
MIIDQDCCAigCAxAAAjANBgkqhkiG9w0BAQQFADB7MQswCQYDVQQGEwJDQTELMAkG
A1UECAwCT04xEDAOBgNVBAcMB1Rvcm9udG8xDDAKBgNVBAoMA0VDRTEMMAoGA1UE
CwwDNTY4MRUwEwYDVQQDDAxCb2IncyBTZXJ2ZXIxGjAYBgkqhkiG9w0BCQEWC3Bl
bmlzX2NoZWNrMB4XDTE5MTAyMjIwMzU0NFoXDTIwMTAyMTIwMzU0NFowTzELMAkG
A1UEBhMCQ0ExCzAJBgNVBAgMAk9OMQwwCgYDVQQKDANFQ0UxDDAKBgNVBAsMAzU2
ODEXMBUGA1UEAwwOQWxpY2UncyBDbGllbnQwggEiMA0GCSqGSIb3DQEBAQUAA4IB
DwAwggEKAoIBAQCpAiQqE9cKfTDA7PPxrud7pvAg28pXZtAxu+GnEq7fTT5tNIs5
OQj8FceKk5X3O04l8hxQQBJHN9ma1eEKAaLNZmN4QvyOhNfNmGRPia/VYbZJyqet
bA565A0FvlY2roQ/ByKIOmZVUckYYxbcilKpjkwgFQk6azfQNfwwHyXIb2KUQgk7
9q2iIsyZuZwW6VkrSLojC3UiDCEjbGI+upRBHR5ipLURWBnYzOlgYj1fy5D1jR6+
B+z7f90Uu/TVa/WD9clH8BT2HtXP+vOmXWFfq8RmwNRRsMSdnz4wpbLhWBlqP/VU
jwBPY7UnV3n9ZhYFucANEkZ6TgTnoAFhsQ0nAgMBAAEwDQYJKoZIhvcNAQEEBQAD
ggEBAHGtZ1rzx3XRoN96mIrKLly+K5qUTRCUI2l3seu87J4kahlqpXWhIWIbb63C
w5tM5aCG0Qrcqv1AFhpKRDnWLOzAawGuQxrCSBcEIi9VB6/o7vOqxSA9XCT8iIhB
zzxUhJMLj3dwSspeuC6rAYBxTz0/rWS7KFCHLjI7t2a2WHx9SgoKUSVHU67E31Kn
I/BH74oAshvZcN8i4eoFKQwrpb3uxViumCCC+saqXUKvXpsEoU/PUmslobaaICp8
EOtHHctzZUtc1HvKiaw+UJSr6pE0XxClvaXZ+3VM3F2Y8nzb4JUlDNuumpTINEVx
JwtHkZxRUjgGjQktUB5OXQiql/w=
-----END CERTIFICATE-----
