Certificate:
    Data:
        Version: 1 (0x0)
        Serial Number: 1048577 (0x100001)
    Signature Algorithm: md5WithRSAEncryption
        Issuer: C=CA, ST=ON, L=Toronto, O=ECE, OU=568, CN=Bob's Server/emailAddress=penis_check
        Validity
            Not Before: Oct 22 20:28:30 2019 GMT
            Not After : Oct 21 20:28:30 2020 GMT
        Subject: C=CA, ST=ON, O=ECE, OU=568, CN=Bob's Server
        Subject Public Key Info:
            Public Key Algorithm: rsaEncryption
                Public-Key: (2048 bit)
                Modulus:
                    00:d7:7f:4f:7d:8d:f8:7a:2e:b0:7d:53:3b:e9:7a:
                    15:3e:c9:19:ba:b8:6d:8a:49:c5:49:e5:c9:32:46:
                    a7:d0:5b:9e:b9:19:56:11:ef:ba:55:54:cb:95:e2:
                    db:02:03:f9:fe:17:32:fe:c9:2c:3f:e2:a3:ac:10:
                    ed:bb:bd:f6:7b:e4:0f:7c:fd:cf:51:b0:6e:45:91:
                    b3:9a:0c:28:30:1b:6f:f5:f8:c0:60:2a:63:5c:09:
                    32:2c:82:10:a6:c1:7e:da:3f:da:6c:b4:82:e2:5a:
                    ff:18:07:5b:86:cb:eb:7d:9f:e8:6a:5f:e2:9c:2b:
                    31:23:71:d2:8a:11:21:59:85:cc:e1:0b:45:56:df:
                    6d:ab:27:bb:48:03:bb:0e:b5:1a:cb:4f:01:f3:97:
                    80:c7:e4:ab:34:4d:e6:fd:97:52:72:f0:19:1f:da:
                    82:47:ba:46:7a:89:59:05:39:89:f4:13:ab:c0:49:
                    af:a3:08:ff:6a:26:45:3c:6e:b2:99:d5:7d:e8:9d:
                    db:50:f6:83:12:f0:b6:c1:5b:af:f3:14:29:a6:cd:
                    12:fc:3e:5d:c6:52:c0:ee:55:cc:48:93:39:3c:91:
                    61:96:7f:41:fa:d0:1d:91:c4:40:a5:6f:9a:1f:a3:
                    df:0b:b3:9d:e5:64:c3:bc:96:24:b0:bf:5e:5d:8a:
                    24:cf
                Exponent: 65537 (0x10001)
    Signature Algorithm: md5WithRSAEncryption
         a8:23:bb:37:b2:c2:cb:00:73:41:9e:5f:6a:9e:4b:79:52:de:
         62:6a:29:e4:9b:7a:f4:60:f8:cc:0f:80:6a:56:d1:ca:69:bc:
         78:bc:ab:b5:1c:75:d7:81:d5:b2:d7:bd:98:d8:39:09:2d:e8:
         ab:c0:7b:5b:7b:58:42:90:8d:bf:94:a6:8c:72:21:6a:78:d3:
         67:c8:fa:dd:3d:ff:7e:d7:d0:1f:79:aa:1c:8e:16:f1:58:c7:
         d3:72:bc:03:90:c2:74:22:f0:b9:ef:13:66:e8:44:c5:72:14:
         55:e6:eb:b5:39:4d:d0:93:02:73:a4:e4:6e:70:60:ac:ab:a1:
         3e:0e:d2:db:ee:f6:ac:ae:20:80:83:15:f8:c5:fc:bb:a8:4a:
         e9:32:d7:01:67:d5:5f:ed:57:ae:63:5e:15:a7:f0:0d:5b:a8:
         45:e5:de:9c:51:a1:53:31:71:05:f8:e7:6e:a9:26:10:e2:d4:
         75:fe:7e:fd:36:ed:62:37:d2:22:d8:87:53:69:8f:77:8b:b9:
         0d:45:f7:b0:9c:c0:33:7e:57:f7:26:75:32:79:ec:77:dd:00:
         da:a0:b5:32:a5:98:c0:8f:f6:b4:3c:46:be:ec:32:82:b6:bf:
         6d:fe:ec:ca:b1:60:d9:84:a1:cc:e1:0d:bc:4f:1b:60:d9:8e:
         6e:37:78:1e
-----BEGIN CERTIFICATE-----
MIIDPjCCAiYCAxAAATANBgkqhkiG9w0BAQQFADB7MQswCQYDVQQGEwJDQTELMAkG
A1UECAwCT04xEDAOBgNVBAcMB1Rvcm9udG8xDDAKBgNVBAoMA0VDRTEMMAoGA1UE
CwwDNTY4MRUwEwYDVQQDDAxCb2IncyBTZXJ2ZXIxGjAYBgkqhkiG9w0BCQEWC3Bl
bmlzX2NoZWNrMB4XDTE5MTAyMjIwMjgzMFoXDTIwMTAyMTIwMjgzMFowTTELMAkG
A1UEBhMCQ0ExCzAJBgNVBAgMAk9OMQwwCgYDVQQKDANFQ0UxDDAKBgNVBAsMAzU2
ODEVMBMGA1UEAwwMQm9iJ3MgU2VydmVyMIIBIjANBgkqhkiG9w0BAQEFAAOCAQ8A
MIIBCgKCAQEA139PfY34ei6wfVM76XoVPskZurhtiknFSeXJMkan0FueuRlWEe+6
VVTLleLbAgP5/hcy/sksP+KjrBDtu732e+QPfP3PUbBuRZGzmgwoMBtv9fjAYCpj
XAkyLIIQpsF+2j/abLSC4lr/GAdbhsvrfZ/oal/inCsxI3HSihEhWYXM4QtFVt9t
qye7SAO7DrUay08B85eAx+SrNE3m/ZdScvAZH9qCR7pGeolZBTmJ9BOrwEmvowj/
aiZFPG6ymdV96J3bUPaDEvC2wVuv8xQpps0S/D5dxlLA7lXMSJM5PJFhln9B+tAd
kcRApW+aH6PfC7Od5WTDvJYksL9eXYokzwIDAQABMA0GCSqGSIb3DQEBBAUAA4IB
AQCoI7s3ssLLAHNBnl9qnkt5Ut5iainkm3r0YPjMD4BqVtHKabx4vKu1HHXXgdWy
172Y2DkJLeirwHtbe1hCkI2/lKaMciFqeNNnyPrdPf9+19AfeaocjhbxWMfTcrwD
kMJ0IvC57xNm6ETFchRV5uu1OU3QkwJzpORucGCsq6E+DtLb7vasriCAgxX4xfy7
qErpMtcBZ9Vf7VeuY14Vp/ANW6hF5d6cUaFTMXEF+OduqSYQ4tR1/n79Nu1iN9Ii
2IdTaY93i7kNRfewnMAzflf3JnUyeex33QDaoLUypZjAj/a0PEa+7DKCtr9t/uzK
sWDZhKHM4Q28Txtg2Y5uN3ge
-----END CERTIFICATE-----
